; Function Attrs: mustprogress nounwind uwtable
define hidden void @_ZN9metaspace12ChunkManager29split_chunk_and_add_splintersEPNS_9MetachunkEa(ptr noundef nonnull align 8 dereferenceable(376) %0, ptr noundef %1, i8 noundef signext %2) local_unnamed_addr #0 align 2 {
  %4 = load volatile ptr, ptr getelementptr inbounds (i8, ptr @_ZN16LogTagSetMappingILN6LogTag4typeE84ELS1_0ELS1_0ELS1_0ELS1_0ELS1_0EE7_tagsetE, i64 56), align 8
  %.not = icmp eq ptr %4, null
  br i1 %.not, label %18, label %5

5:                                                ; preds = %3
  %6 = ptrtoint ptr %0 to i64
  %7 = getelementptr inbounds i8, ptr %0, i64 8
  %8 = load ptr, ptr %7, align 8
  %9 = ptrtoint ptr %1 to i64
  %10 = tail call noundef signext i8 @_ZNK9metaspace9Metachunk14get_state_charEv(ptr noundef nonnull align 8 dereferenceable(72) %1) #10
  %11 = sext i8 %10 to i32
  %12 = load ptr, ptr %1, align 8
  %13 = ptrtoint ptr %12 to i64
  %14 = getelementptr inbounds i8, ptr %1, i64 24
  %15 = load i8, ptr %14, align 8
  %16 = sext i8 %15 to i32
  %17 = sext i8 %2 to i32
  tail call void (ptr, ...) @_ZN7LogImplILN6LogTag4typeE84ELS1_0ELS1_0ELS1_0ELS1_0ELS1_0EE5writeILN8LogLevel4typeE2EEEvPKcz(ptr noundef nonnull @.str.4, i64 noundef %6, ptr noundef %8, i64 noundef %9, i32 noundef %11, i64 noundef %13, i32 noundef %16, i32 noundef %17)
  br label %18

18:                                               ; preds = %3, %5
  %19 = getelementptr inbounds i8, ptr %1, i64 32
  %20 = load ptr, ptr %19, align 8
  %21 = getelementptr inbounds i8, ptr %0, i64 16
  tail call void @_ZN9metaspace16VirtualSpaceNode5splitEaPNS_9MetachunkEPNS_19FreeChunkListVectorE(ptr noundef nonnull align 8 dereferenceable(192) %20, i8 noundef signext %2, ptr noundef nonnull %1, ptr noundef nonnull %21) #10
  %22 = load i64, ptr @_ZN9metaspace13InternalStats17_num_chunk_splitsE, align 8
  %23 = add i64 %22, 1
  store i64 %23, ptr @_ZN9metaspace13InternalStats17_num_chunk_splitsE, align 8
  ret void
}